target datalayout = "e-m:e-p270:32:32-p271:32:32-p272:64:64-i64:64-i128:128-f80:128-n8:16:32:64-S128"
target triple = "x86_64-pc-linux-gnu"

%struct.nameData = type { [64 x i8] }
%struct.RelationData = type { %struct.RelFileLocator, ptr, i32, i32, i8, i8, i8, i8, i8, i32, i32, i32, i32, ptr, ptr, i32, %struct.LockInfoData, ptr, ptr, ptr, ptr, ptr, i8, ptr, ptr, ptr, ptr, ptr, ptr, i32, ptr, i8, ptr, ptr, i32, i8, i32, ptr, i8, ptr, ptr, ptr, ptr, ptr, ptr, ptr, i32, ptr, ptr, ptr, ptr, ptr, ptr, ptr, ptr, ptr, ptr, ptr, ptr, ptr, ptr, ptr, ptr, ptr, ptr, ptr, i32, i8, ptr }
%struct.RelFileLocator = type { i32, i32, i32 }
%struct.LockInfoData = type { %struct.LockRelId }
%struct.LockRelId = type { i32, i32 }
%struct.FormData_pg_class = type { i32, %struct.nameData, i32, i32, i32, i32, i32, i32, i32, i32, float, i32, i32, i8, i8, i8, i8, i16, i16, i8, i8, i8, i8, i8, i8, i8, i8, i32, i32, i32 }

; Function Attrs: nounwind uwtable
define dso_local i32 @errtable(ptr noundef %0) #0 {
  %2 = alloca ptr, align 8
  store ptr %0, ptr %2, align 8
  %3 = load ptr, ptr %2, align 8
  %4 = getelementptr inbounds nuw %struct.RelationData, ptr %3, i32 0, i32 13
  %5 = load ptr, ptr %4, align 8
  %6 = getelementptr inbounds nuw %struct.FormData_pg_class, ptr %5, i32 0, i32 2
  %7 = load i32, ptr %6, align 4
  %8 = call ptr @get_namespace_name(i32 noundef %7)
  %9 = call i32 @err_generic_string(i32 noundef 115, ptr noundef %8)
  %10 = load ptr, ptr %2, align 8
  %11 = getelementptr inbounds nuw %struct.RelationData, ptr %10, i32 0, i32 13
  %12 = load ptr, ptr %11, align 8
  %13 = getelementptr inbounds nuw %struct.FormData_pg_class, ptr %12, i32 0, i32 1
  %14 = getelementptr inbounds nuw %struct.nameData, ptr %13, i32 0, i32 0
  %15 = getelementptr inbounds [64 x i8], ptr %14, i64 0, i64 0
  %16 = call i32 @err_generic_string(i32 noundef 116, ptr noundef %15)
  ret i32 0
}