; Function Attrs: nounwind uwtable
define dso_local noundef i32 @errtable(ptr noundef readonly captures(none) %0) local_unnamed_addr #0 {
  %2 = getelementptr inbounds nuw i8, ptr %0, i64 56
  %3 = load ptr, ptr %2, align 8
  %4 = getelementptr inbounds nuw i8, ptr %3, i64 68
  %5 = load i32, ptr %4, align 4
  %6 = tail call ptr @get_namespace_name(i32 noundef %5) #13
  %7 = tail call i32 @err_generic_string(i32 noundef 115, ptr noundef %6) #13
  %8 = load ptr, ptr %2, align 8
  %9 = getelementptr inbounds nuw i8, ptr %8, i64 4
  %10 = tail call i32 @err_generic_string(i32 noundef 116, ptr noundef nonnull %9) #13
  ret i32 0
}